target datalayout = "e-m:e-p270:32:32-p271:32:32-p272:64:64-i64:64-i128:128-f80:128-n8:16:32:64-S128"
target triple = "x86_64-pc-linux-gnu"

%class.NavMeshTesterTool = type { %struct.SampleTool, ptr, ptr, ptr, %class.dtQueryFilter, i32, i32, i32, i32, i32, [256 x i32], [256 x i32], i32, [768 x float], [256 x i8], [256 x i32], i32, [3 x float], [6144 x float], i32, [12 x float], [192 x float], i32, i8, [3 x float], [3 x float], [3 x float], [3 x float], i8, float, float, float, i8, i8, i32, [256 x i32], i32, [3 x float], [3 x float], [3 x float], [3 x float], [30 x float], i32 }
%struct.SampleTool = type { ptr }
%class.dtQueryFilter = type { [64 x float], i16, i16 }

; Function Attrs: mustprogress nounwind uwtable
define linkonce_odr dso_local void @_ZN13dtQueryFilter11setAreaCostEif(ptr noundef nonnull align 4 dereferenceable(260) %0, i32 noundef %1, float noundef %2) #1 comdat align 2 {
  %4 = alloca ptr, align 8
  %5 = alloca i32, align 4
  %6 = alloca float, align 4
  store ptr %0, ptr %4, align 8
  store i32 %1, ptr %5, align 4
  store float %2, ptr %6, align 4
  %7 = load ptr, ptr %4, align 8
  %8 = load float, ptr %6, align 4
  %9 = getelementptr inbounds %class.dtQueryFilter, ptr %7, i32 0, i32 0
  %10 = load i32, ptr %5, align 4
  %11 = sext i32 %10 to i64
  %12 = getelementptr inbounds [64 x float], ptr %9, i64 0, i64 %11
  store float %8, ptr %12, align 4
  ret void
}

; Function Attrs: mustprogress uwtable
define dso_local void @_ZN17NavMeshTesterTool4initEP6Sample(ptr noundef nonnull align 8 dereferenceable(33408) %0, ptr noundef %1) unnamed_addr #0 align 2 {
  %3 = alloca ptr, align 8
  %4 = alloca ptr, align 8
  store ptr %0, ptr %3, align 8
  store ptr %1, ptr %4, align 8
  %5 = load ptr, ptr %3, align 8
  %6 = load ptr, ptr %4, align 8
  %7 = getelementptr inbounds %class.NavMeshTesterTool, ptr %5, i32 0, i32 1
  store ptr %6, ptr %7, align 8
  %8 = load ptr, ptr %4, align 8
  %9 = load ptr, ptr %8, align 8
  %10 = getelementptr inbounds ptr, ptr %9, i64 15
  %11 = load ptr, ptr %10, align 8
  %12 = call noundef ptr %11(ptr noundef nonnull align 8 dereferenceable(200) %8)
  %13 = getelementptr inbounds %class.NavMeshTesterTool, ptr %5, i32 0, i32 2
  store ptr %12, ptr %13, align 8
  %14 = load ptr, ptr %4, align 8
  %15 = load ptr, ptr %14, align 8
  %16 = getelementptr inbounds ptr, ptr %15, i64 16
  %17 = load ptr, ptr %16, align 8
  %18 = call noundef ptr %17(ptr noundef nonnull align 8 dereferenceable(200) %14)
  %19 = getelementptr inbounds %class.NavMeshTesterTool, ptr %5, i32 0, i32 3
  store ptr %18, ptr %19, align 8
  call void @_ZN17NavMeshTesterTool6recalcEv(ptr noundef nonnull align 8 dereferenceable(33408) %5)
  %20 = getelementptr inbounds %class.NavMeshTesterTool, ptr %5, i32 0, i32 3
  %21 = load ptr, ptr %20, align 8
  %22 = icmp ne ptr %21, null
  br i1 %22, label %23, label %30

23:                                               ; preds = %2
  %24 = getelementptr inbounds %class.NavMeshTesterTool, ptr %5, i32 0, i32 4
  call void @_ZN13dtQueryFilter11setAreaCostEif(ptr noundef nonnull align 4 dereferenceable(260) %24, i32 noundef 0, float noundef 1.000000e+00)
  %25 = getelementptr inbounds %class.NavMeshTesterTool, ptr %5, i32 0, i32 4
  call void @_ZN13dtQueryFilter11setAreaCostEif(ptr noundef nonnull align 4 dereferenceable(260) %25, i32 noundef 1, float noundef 1.000000e+01)
  %26 = getelementptr inbounds %class.NavMeshTesterTool, ptr %5, i32 0, i32 4
  call void @_ZN13dtQueryFilter11setAreaCostEif(ptr noundef nonnull align 4 dereferenceable(260) %26, i32 noundef 2, float noundef 1.000000e+00)
  %27 = getelementptr inbounds %class.NavMeshTesterTool, ptr %5, i32 0, i32 4
  call void @_ZN13dtQueryFilter11setAreaCostEif(ptr noundef nonnull align 4 dereferenceable(260) %27, i32 noundef 3, float noundef 1.000000e+00)
  %28 = getelementptr inbounds %class.NavMeshTesterTool, ptr %5, i32 0, i32 4
  call void @_ZN13dtQueryFilter11setAreaCostEif(ptr noundef nonnull align 4 dereferenceable(260) %28, i32 noundef 4, float noundef 2.000000e+00)
  %29 = getelementptr inbounds %class.NavMeshTesterTool, ptr %5, i32 0, i32 4
  call void @_ZN13dtQueryFilter11setAreaCostEif(ptr noundef nonnull align 4 dereferenceable(260) %29, i32 noundef 5, float noundef 1.500000e+00)
  br label %30

30:                                               ; preds = %23, %2
  %31 = load ptr, ptr %4, align 8
  %32 = load ptr, ptr %31, align 8
  %33 = getelementptr inbounds ptr, ptr %32, i64 18
  %34 = load ptr, ptr %33, align 8
  %35 = call noundef float %34(ptr noundef nonnull align 8 dereferenceable(200) %31)
  %36 = fmul float %35, 2.000000e+01
  %37 = getelementptr inbounds %class.NavMeshTesterTool, ptr %5, i32 0, i32 30
  store float %36, ptr %37, align 8
  %38 = load ptr, ptr %4, align 8
  %39 = load ptr, ptr %38, align 8
  %40 = getelementptr inbounds ptr, ptr %39, i64 18
  %41 = load ptr, ptr %40, align 8
  %42 = call noundef float %41(ptr noundef nonnull align 8 dereferenceable(200) %38)
  %43 = fmul float %42, 3.000000e+01
  %44 = getelementptr inbounds %class.NavMeshTesterTool, ptr %5, i32 0, i32 31
  store float %43, ptr %44, align 4
  ret void
}