; Function Attrs: mustprogress uwtable
define dso_local void @_ZN17NavMeshTesterTool4initEP6Sample(ptr noundef nonnull align 8 dereferenceable(33408) %0, ptr noundef %1) unnamed_addr #0 align 2 {
  %3 = getelementptr inbounds i8, ptr %0, i64 8
  store ptr %1, ptr %3, align 8
  %4 = load ptr, ptr %1, align 8
  %5 = getelementptr inbounds i8, ptr %4, i64 120
  %6 = load ptr, ptr %5, align 8
  %7 = tail call noundef ptr %6(ptr noundef nonnull align 8 dereferenceable(200) %1)
  %8 = getelementptr inbounds i8, ptr %0, i64 16
  store ptr %7, ptr %8, align 8
  %9 = load ptr, ptr %1, align 8
  %10 = getelementptr inbounds i8, ptr %9, i64 128
  %11 = load ptr, ptr %10, align 8
  %12 = tail call noundef ptr %11(ptr noundef nonnull align 8 dereferenceable(200) %1)
  %13 = getelementptr inbounds i8, ptr %0, i64 24
  store ptr %12, ptr %13, align 8
  tail call void @_ZN17NavMeshTesterTool6recalcEv(ptr noundef nonnull align 8 dereferenceable(33408) %0)
  %14 = load ptr, ptr %13, align 8
  %.not = icmp eq ptr %14, null
  br i1 %.not, label %18, label %15

15:                                               ; preds = %2
  %16 = getelementptr inbounds i8, ptr %0, i64 32
  store <4 x float> <float 1.000000e+00, float 1.000000e+01, float 1.000000e+00, float 1.000000e+00>, ptr %16, align 8
  %17 = getelementptr inbounds i8, ptr %0, i64 48
  store <2 x float> <float 2.000000e+00, float 1.500000e+00>, ptr %17, align 8
  br label %18

18:                                               ; preds = %15, %2
  %19 = load ptr, ptr %1, align 8
  %20 = getelementptr inbounds i8, ptr %19, i64 144
  %21 = load ptr, ptr %20, align 8
  %22 = tail call noundef float %21(ptr noundef nonnull align 8 dereferenceable(200) %1)
  %23 = fmul float %22, 2.000000e+01
  %24 = getelementptr inbounds i8, ptr %0, i64 32192
  store float %23, ptr %24, align 8
  %25 = load ptr, ptr %1, align 8
  %26 = getelementptr inbounds i8, ptr %25, i64 144
  %27 = load ptr, ptr %26, align 8
  %28 = tail call noundef float %27(ptr noundef nonnull align 8 dereferenceable(200) %1)
  %29 = fmul float %28, 3.000000e+01
  %30 = getelementptr inbounds i8, ptr %0, i64 32196
  store float %29, ptr %30, align 4
  ret void
}